TN:
SF:/usr/include/c++/5/bits/alloc_traits.h
FN:490,_ZNSt16allocator_traitsISaISt4pairINSt7__cxx1112basic_stringIcSt11char_traitsIcESaIcEEES6_EEE8allocateERS8_m
FN:516,_ZNSt16allocator_traitsISaISt4pairINSt7__cxx1112basic_stringIcSt11char_traitsIcESaIcEEES6_EEE10deallocateERS8_PS7_m
FN:559,_ZNSt16allocator_traitsISaISt4pairINSt7__cxx1112basic_stringIcSt11char_traitsIcESaIcEEES6_EEE37select_on_container_copy_constructionERKS8_
FNDA:0,_ZNSt16allocator_traitsISaISt4pairINSt7__cxx1112basic_stringIcSt11char_traitsIcESaIcEEES6_EEE8allocateERS8_m
FNDA:0,_ZNSt16allocator_traitsISaISt4pairINSt7__cxx1112basic_stringIcSt11char_traitsIcESaIcEEES6_EEE10deallocateERS8_PS7_m
FNDA:1,_ZNSt16allocator_traitsISaISt4pairINSt7__cxx1112basic_stringIcSt11char_traitsIcESaIcEEES6_EEE37select_on_container_copy_constructionERKS8_
FNF:3
FNH:1
DA:490,0
DA:491,0
DA:516,0
DA:517,0
DA:559,1
DA:560,1
LF:6
LH:2
end_of_record
SF:/usr/include/c++/5/bits/allocator.h
FN:115,_ZNSaISt4pairINSt7__cxx1112basic_stringIcSt11char_traitsIcESaIcEEES5_EEC2ERKS7_
FN:121,_ZNSaISt4pairINSt7__cxx1112basic_stringIcSt11char_traitsIcESaIcEEES5_EED2Ev
FNDA:2,_ZNSaISt4pairINSt7__cxx1112basic_stringIcSt11char_traitsIcESaIcEEES5_EEC2ERKS7_
FNDA:1,_ZNSaISt4pairINSt7__cxx1112basic_stringIcSt11char_traitsIcESaIcEEES5_EED2Ev
FNF:2
FNH:2
DA:115,2
DA:116,2
DA:121,1
LF:3
LH:3
end_of_record
SF:/usr/include/c++/5/bits/ios_base.h
FN:129,_ZStorSt13_Ios_OpenmodeS_
FNDA:1,_ZStorSt13_Ios_OpenmodeS_
FNF:1
FNH:1
DA:129,1
DA:130,1
LF:2
LH:2
end_of_record
SF:/usr/include/c++/5/bits/move.h
FN:47,_ZSt11__addressofISt4pairINSt7__cxx1112basic_stringIcSt11char_traitsIcESaIcEEES6_EEPT_RS8_
FN:76,_ZSt7forwardIRP17ComplexNumberTestEOT_RNSt16remove_referenceIS3_E4typeE
FN:76,_ZSt7forwardIRKSt4pairINSt7__cxx1112basic_stringIcSt11char_traitsIcESaIcEEES6_EEOT_RNSt16remove_referenceISA_E4typeE
FN:76,_ZSt7forwardIRPN7CppUnit9TestSuiteEEOT_RNSt16remove_referenceIS4_E4typeE
FN:76,_ZSt7forwardIRM17ComplexNumberTestFvvEEOT_RNSt16remove_referenceIS4_E4typeE
FN:76,_ZSt7forwardISt14default_deleteIN7CppUnit9TestSuiteEEEOT_RNSt16remove_referenceIS4_E4typeE
FN:76,_ZSt7forwardIP17ComplexNumberTestEOT_RNSt16remove_referenceIS2_E4typeE
FN:101,_ZSt4moveIRSt7_Mem_fnIM17ComplexNumberTestFvvEEEONSt16remove_referenceIT_E4typeEOS7_
FN:101,_ZSt4moveIRSt5_BindIFSt7_Mem_fnIM17ComplexNumberTestFvvEEPS2_EEEONSt16remove_referenceIT_E4typeEOSB_
FN:101,_ZSt4moveIRSt5tupleIJP17ComplexNumberTestEEEONSt16remove_referenceIT_E4typeEOS6_
FNDA:0,_ZSt11__addressofISt4pairINSt7__cxx1112basic_stringIcSt11char_traitsIcESaIcEEES6_EEPT_RS8_
FNDA:0,_ZSt7forwardIRKSt4pairINSt7__cxx1112basic_stringIcSt11char_traitsIcESaIcEEES6_EEOT_RNSt16remove_referenceISA_E4typeE
FNDA:2,_ZSt7forwardIP17ComplexNumberTestEOT_RNSt16remove_referenceIS2_E4typeE
FNDA:6,_ZSt7forwardIRP17ComplexNumberTestEOT_RNSt16remove_referenceIS3_E4typeE
FNDA:1,_ZSt7forwardIRM17ComplexNumberTestFvvEEOT_RNSt16remove_referenceIS4_E4typeE
FNDA:4,_ZSt7forwardISt14default_deleteIN7CppUnit9TestSuiteEEEOT_RNSt16remove_referenceIS4_E4typeE
FNDA:3,_ZSt7forwardIRPN7CppUnit9TestSuiteEEOT_RNSt16remove_referenceIS4_E4typeE
FNDA:3,_ZSt4moveIRSt5_BindIFSt7_Mem_fnIM17ComplexNumberTestFvvEEPS2_EEEONSt16remove_referenceIT_E4typeEOSB_
FNDA:1,_ZSt4moveIRSt5tupleIJP17ComplexNumberTestEEEONSt16remove_referenceIT_E4typeEOS6_
FNDA:2,_ZSt4moveIRSt7_Mem_fnIM17ComplexNumberTestFvvEEEONSt16remove_referenceIT_E4typeEOS7_
FNF:10
FNH:8
DA:47,0
DA:50,0
DA:76,16
DA:77,16
DA:101,6
DA:102,6
LF:6
LH:4
end_of_record
SF:/usr/include/c++/5/bits/stl_construct.h
FN:74,_ZSt10_ConstructISt4pairINSt7__cxx1112basic_stringIcSt11char_traitsIcESaIcEEES6_EJRKS7_EEvPT_DpOT0_
FN:92,_ZSt8_DestroyISt4pairINSt7__cxx1112basic_stringIcSt11char_traitsIcESaIcEEES6_EEvPT_
FN:100,_ZNSt12_Destroy_auxILb0EE9__destroyIPSt4pairINSt7__cxx1112basic_stringIcSt11char_traitsIcESaIcEEES8_EEEvT_SB_
FN:122,_ZSt8_DestroyIPSt4pairINSt7__cxx1112basic_stringIcSt11char_traitsIcESaIcEEES6_EEvT_S9_
FNDA:0,_ZSt10_ConstructISt4pairINSt7__cxx1112basic_stringIcSt11char_traitsIcESaIcEEES6_EJRKS7_EEvPT_DpOT0_
FNDA:0,_ZSt8_DestroyISt4pairINSt7__cxx1112basic_stringIcSt11char_traitsIcESaIcEEES6_EEvPT_
FNDA:0,_ZNSt12_Destroy_auxILb0EE9__destroyIPSt4pairINSt7__cxx1112basic_stringIcSt11char_traitsIcESaIcEEES8_EEEvT_SB_
FNDA:0,_ZSt8_DestroyIPSt4pairINSt7__cxx1112basic_stringIcSt11char_traitsIcESaIcEEES6_EEvT_S9_
FNF:4
FNH:0
DA:74,0
DA:75,0
DA:92,0
DA:93,0
DA:100,0
DA:102,0
DA:103,0
DA:104,0
DA:122,0
DA:126,0
DA:128,0
LF:11
LH:0
end_of_record
SF:/usr/include/c++/5/bits/stl_function.h
FN:105,_ZNSt14unary_functionIP17ComplexNumberTestvEC2Ev
FNDA:1,_ZNSt14unary_functionIP17ComplexNumberTestvEC2Ev
FNF:1
FNH:1
DA:105,1
LF:1
LH:1
end_of_record
SF:/usr/include/c++/5/bits/stl_iterator.h
FN:740,_ZN9__gnu_cxx17__normal_iteratorIPKSt4pairINSt7__cxx1112basic_stringIcSt11char_traitsIcESaIcEEES7_ESt6vectorIS8_SaIS8_EEEC2ERKSA_
FN:753,_ZNK9__gnu_cxx17__normal_iteratorIPKSt4pairINSt7__cxx1112basic_stringIcSt11char_traitsIcESaIcEEES7_ESt6vectorIS8_SaIS8_EEEdeEv
FN:761,_ZN9__gnu_cxx17__normal_iteratorIPKSt4pairINSt7__cxx1112basic_stringIcSt11char_traitsIcESaIcEEES7_ESt6vectorIS8_SaIS8_EEEppEv
FN:805,_ZNK9__gnu_cxx17__normal_iteratorIPKSt4pairINSt7__cxx1112basic_stringIcSt11char_traitsIcESaIcEEES7_ESt6vectorIS8_SaIS8_EEE4baseEv
FN:841,_ZN9__gnu_cxxneIPKSt4pairINSt7__cxx1112basic_stringIcSt11char_traitsIcESaIcEEES7_ESt6vectorIS8_SaIS8_EEEEbRKNS_17__normal_iteratorIT_T0_EESJ_
FNDA:2,_ZN9__gnu_cxx17__normal_iteratorIPKSt4pairINSt7__cxx1112basic_stringIcSt11char_traitsIcESaIcEEES7_ESt6vectorIS8_SaIS8_EEEC2ERKSA_
FNDA:0,_ZNK9__gnu_cxx17__normal_iteratorIPKSt4pairINSt7__cxx1112basic_stringIcSt11char_traitsIcESaIcEEES7_ESt6vectorIS8_SaIS8_EEEdeEv
FNDA:0,_ZN9__gnu_cxx17__normal_iteratorIPKSt4pairINSt7__cxx1112basic_stringIcSt11char_traitsIcESaIcEEES7_ESt6vectorIS8_SaIS8_EEEppEv
FNDA:2,_ZNK9__gnu_cxx17__normal_iteratorIPKSt4pairINSt7__cxx1112basic_stringIcSt11char_traitsIcESaIcEEES7_ESt6vectorIS8_SaIS8_EEE4baseEv
FNDA:1,_ZN9__gnu_cxxneIPKSt4pairINSt7__cxx1112basic_stringIcSt11char_traitsIcESaIcEEES7_ESt6vectorIS8_SaIS8_EEEEbRKNS_17__normal_iteratorIT_T0_EESJ_
FNF:5
FNH:3
DA:740,2
DA:741,2
DA:753,0
DA:754,0
DA:761,0
DA:763,0
DA:764,0
DA:805,2
DA:806,2
DA:841,1
DA:844,1
LF:11
LH:6
end_of_record
SF:/usr/include/c++/5/bits/stl_pair.h
FN:96,_ZNSt4pairINSt7__cxx1112basic_stringIcSt11char_traitsIcESaIcEEES5_ED2Ev
FN:127,_ZNSt4pairINSt7__cxx1112basic_stringIcSt11char_traitsIcESaIcEEES5_EC2ERKS6_
FNDA:0,_ZNSt4pairINSt7__cxx1112basic_stringIcSt11char_traitsIcESaIcEEES5_ED2Ev
FNDA:0,_ZNSt4pairINSt7__cxx1112basic_stringIcSt11char_traitsIcESaIcEEES5_EC2ERKS6_
FNF:2
FNH:0
DA:96,0
DA:127,0
LF:2
LH:0
end_of_record
SF:/usr/include/c++/5/bits/stl_uninitialized.h
FN:68,_ZNSt20__uninitialized_copyILb0EE13__uninit_copyIN9__gnu_cxx17__normal_iteratorIPKSt4pairINSt7__cxx1112basic_stringIcSt11char_traitsIcESaIcEEESA_ESt6vectorISB_SaISB_EEEEPSB_EET0_T_SK_SJ_
FN:107,_ZSt18uninitialized_copyIN9__gnu_cxx17__normal_iteratorIPKSt4pairINSt7__cxx1112basic_stringIcSt11char_traitsIcESaIcEEES8_ESt6vectorIS9_SaIS9_EEEEPS9_ET0_T_SI_SH_
FN:279,_ZSt22__uninitialized_copy_aIN9__gnu_cxx17__normal_iteratorIPKSt4pairINSt7__cxx1112basic_stringIcSt11char_traitsIcESaIcEEES8_ESt6vectorIS9_SaIS9_EEEEPS9_S9_ET0_T_SI_SH_RSaIT1_E
FNDA:1,_ZNSt20__uninitialized_copyILb0EE13__uninit_copyIN9__gnu_cxx17__normal_iteratorIPKSt4pairINSt7__cxx1112basic_stringIcSt11char_traitsIcESaIcEEESA_ESt6vectorISB_SaISB_EEEEPSB_EET0_T_SK_SJ_
FNDA:1,_ZSt18uninitialized_copyIN9__gnu_cxx17__normal_iteratorIPKSt4pairINSt7__cxx1112basic_stringIcSt11char_traitsIcESaIcEEES8_ESt6vectorIS9_SaIS9_EEEEPS9_ET0_T_SI_SH_
FNDA:1,_ZSt22__uninitialized_copy_aIN9__gnu_cxx17__normal_iteratorIPKSt4pairINSt7__cxx1112basic_stringIcSt11char_traitsIcESaIcEEES8_ESt6vectorIS9_SaIS9_EEEEPS9_S9_ET0_T_SI_SH_RSaIT1_E
FNF:3
FNH:3
DA:68,1
DA:71,1
DA:74,1
DA:75,0
DA:76,1
DA:78,0
DA:80,0
DA:81,0
DA:107,1
DA:120,1
DA:126,1
DA:279,1
DA:281,1
LF:13
LH:9
end_of_record
SF:/usr/include/c++/5/bits/stl_vector.h
FN:79,_ZNSt12_Vector_baseISt4pairINSt7__cxx1112basic_stringIcSt11char_traitsIcESaIcEEES6_ESaIS7_EE12_Vector_implD2Ev
FN:90,_ZNSt12_Vector_baseISt4pairINSt7__cxx1112basic_stringIcSt11char_traitsIcESaIcEEES6_ESaIS7_EE12_Vector_implC2ERKS8_
FN:113,_ZNSt12_Vector_baseISt4pairINSt7__cxx1112basic_stringIcSt11char_traitsIcESaIcEEES6_ESaIS7_EE19_M_get_Tp_allocatorEv
FN:117,_ZNKSt12_Vector_baseISt4pairINSt7__cxx1112basic_stringIcSt11char_traitsIcESaIcEEES6_ESaIS7_EE19_M_get_Tp_allocatorEv
FN:134,_ZNSt12_Vector_baseISt4pairINSt7__cxx1112basic_stringIcSt11char_traitsIcESaIcEEES6_ESaIS7_EEC2EmRKS8_
FN:159,_ZNSt12_Vector_baseISt4pairINSt7__cxx1112basic_stringIcSt11char_traitsIcESaIcEEES6_ESaIS7_EED2Ev
FN:167,_ZNSt12_Vector_baseISt4pairINSt7__cxx1112basic_stringIcSt11char_traitsIcESaIcEEES6_ESaIS7_EE11_M_allocateEm
FN:174,_ZNSt12_Vector_baseISt4pairINSt7__cxx1112basic_stringIcSt11char_traitsIcESaIcEEES6_ESaIS7_EE13_M_deallocateEPS7_m
FN:183,_ZNSt12_Vector_baseISt4pairINSt7__cxx1112basic_stringIcSt11char_traitsIcESaIcEEES6_ESaIS7_EE17_M_create_storageEm
FN:318,_ZNSt6vectorISt4pairINSt7__cxx1112basic_stringIcSt11char_traitsIcESaIcEEES6_ESaIS7_EEC2ERKS9_
FN:556,_ZNKSt6vectorISt4pairINSt7__cxx1112basic_stringIcSt11char_traitsIcESaIcEEES6_ESaIS7_EE5beginEv
FN:574,_ZNKSt6vectorISt4pairINSt7__cxx1112basic_stringIcSt11char_traitsIcESaIcEEES6_ESaIS7_EE3endEv
FN:654,_ZNKSt6vectorISt4pairINSt7__cxx1112basic_stringIcSt11char_traitsIcESaIcEEES6_ESaIS7_EE4sizeEv
FNDA:0,_ZNSt12_Vector_baseISt4pairINSt7__cxx1112basic_stringIcSt11char_traitsIcESaIcEEES6_ESaIS7_EE12_Vector_implD2Ev
FNDA:1,_ZNSt12_Vector_baseISt4pairINSt7__cxx1112basic_stringIcSt11char_traitsIcESaIcEEES6_ESaIS7_EE12_Vector_implC2ERKS8_
FNDA:1,_ZNSt12_Vector_baseISt4pairINSt7__cxx1112basic_stringIcSt11char_traitsIcESaIcEEES6_ESaIS7_EE19_M_get_Tp_allocatorEv
FNDA:1,_ZNKSt12_Vector_baseISt4pairINSt7__cxx1112basic_stringIcSt11char_traitsIcESaIcEEES6_ESaIS7_EE19_M_get_Tp_allocatorEv
FNDA:1,_ZNSt12_Vector_baseISt4pairINSt7__cxx1112basic_stringIcSt11char_traitsIcESaIcEEES6_ESaIS7_EEC2EmRKS8_
FNDA:0,_ZNSt12_Vector_baseISt4pairINSt7__cxx1112basic_stringIcSt11char_traitsIcESaIcEEES6_ESaIS7_EED2Ev
FNDA:1,_ZNSt12_Vector_baseISt4pairINSt7__cxx1112basic_stringIcSt11char_traitsIcESaIcEEES6_ESaIS7_EE11_M_allocateEm
FNDA:0,_ZNSt12_Vector_baseISt4pairINSt7__cxx1112basic_stringIcSt11char_traitsIcESaIcEEES6_ESaIS7_EE13_M_deallocateEPS7_m
FNDA:1,_ZNSt12_Vector_baseISt4pairINSt7__cxx1112basic_stringIcSt11char_traitsIcESaIcEEES6_ESaIS7_EE17_M_create_storageEm
FNDA:1,_ZNSt6vectorISt4pairINSt7__cxx1112basic_stringIcSt11char_traitsIcESaIcEEES6_ESaIS7_EEC2ERKS9_
FNDA:1,_ZNKSt6vectorISt4pairINSt7__cxx1112basic_stringIcSt11char_traitsIcESaIcEEES6_ESaIS7_EE5beginEv
FNDA:1,_ZNKSt6vectorISt4pairINSt7__cxx1112basic_stringIcSt11char_traitsIcESaIcEEES6_ESaIS7_EE3endEv
FNDA:1,_ZNKSt6vectorISt4pairINSt7__cxx1112basic_stringIcSt11char_traitsIcESaIcEEES6_ESaIS7_EE4sizeEv
FNF:13
FNH:10
DA:79,0
DA:90,1
DA:91,1
DA:92,1
DA:113,1
DA:114,1
DA:117,1
DA:118,1
DA:134,1
DA:135,1
DA:136,1
DA:159,0
DA:160,0
DA:161,0
DA:167,1
DA:170,1
DA:174,0
DA:177,0
DA:178,0
DA:179,0
DA:183,1
DA:185,1
DA:186,1
DA:187,1
DA:188,1
DA:318,1
DA:320,1
DA:321,1
DA:322,1
DA:324,1
DA:325,1
DA:556,1
DA:557,1
DA:574,1
DA:575,1
DA:654,1
DA:655,1
LF:37
LH:29
end_of_record
SF:/usr/include/c++/5/bits/unique_ptr.h
FN:70,_ZNKSt14default_deleteIN7CppUnit9TestSuiteEEclEPS1_
FN:169,_ZNSt10unique_ptrIN7CppUnit9TestSuiteESt14default_deleteIS1_EEC2EPS1_
FN:232,_ZNSt10unique_ptrIN7CppUnit9TestSuiteESt14default_deleteIS1_EED2Ev
FN:304,_ZNKSt10unique_ptrIN7CppUnit9TestSuiteESt14default_deleteIS1_EE3getEv
FN:309,_ZNSt10unique_ptrIN7CppUnit9TestSuiteESt14default_deleteIS1_EE11get_deleterEv
FN:325,_ZNSt10unique_ptrIN7CppUnit9TestSuiteESt14default_deleteIS1_EE7releaseEv
FNDA:0,_ZNKSt14default_deleteIN7CppUnit9TestSuiteEEclEPS1_
FNDA:1,_ZNSt10unique_ptrIN7CppUnit9TestSuiteESt14default_deleteIS1_EEC2EPS1_
FNDA:1,_ZNSt10unique_ptrIN7CppUnit9TestSuiteESt14default_deleteIS1_EED2Ev
FNDA:2,_ZNKSt10unique_ptrIN7CppUnit9TestSuiteESt14default_deleteIS1_EE3getEv
FNDA:0,_ZNSt10unique_ptrIN7CppUnit9TestSuiteESt14default_deleteIS1_EE11get_deleterEv
FNDA:1,_ZNSt10unique_ptrIN7CppUnit9TestSuiteESt14default_deleteIS1_EE7releaseEv
FNF:6
FNH:4
DA:70,0
DA:76,0
DA:77,0
DA:169,1
DA:170,1
DA:172,1
DA:232,1
DA:234,1
DA:235,1
DA:236,0
DA:237,1
DA:238,1
DA:304,2
DA:305,2
DA:309,0
DA:310,0
DA:325,1
DA:327,1
DA:328,1
DA:329,1
LF:20
LH:14
end_of_record
SF:/usr/include/c++/5/ext/alloc_traits.h
FN:139,_ZN9__gnu_cxx14__alloc_traitsISaISt4pairINSt7__cxx1112basic_stringIcSt11char_traitsIcESaIcEEES7_EEE17_S_select_on_copyERKS9_
FNDA:1,_ZN9__gnu_cxx14__alloc_traitsISaISt4pairINSt7__cxx1112basic_stringIcSt11char_traitsIcESaIcEEES7_EEE17_S_select_on_copyERKS9_
FNF:1
FNH:1
DA:139,1
DA:140,1
LF:2
LH:2
end_of_record
SF:/usr/include/c++/5/ext/new_allocator.h
FN:81,_ZN9__gnu_cxx13new_allocatorISt4pairINSt7__cxx1112basic_stringIcSt11char_traitsIcESaIcEEES7_EEC2ERKS9_
FN:86,_ZN9__gnu_cxx13new_allocatorISt4pairINSt7__cxx1112basic_stringIcSt11char_traitsIcESaIcEEES7_EED2Ev
FN:99,_ZN9__gnu_cxx13new_allocatorISt4pairINSt7__cxx1112basic_stringIcSt11char_traitsIcESaIcEEES7_EE8allocateEmPKv
FN:109,_ZN9__gnu_cxx13new_allocatorISt4pairINSt7__cxx1112basic_stringIcSt11char_traitsIcESaIcEEES7_EE10deallocateEPS8_m
FN:113,_ZNK9__gnu_cxx13new_allocatorISt4pairINSt7__cxx1112basic_stringIcSt11char_traitsIcESaIcEEES7_EE8max_sizeEv
FNDA:2,_ZN9__gnu_cxx13new_allocatorISt4pairINSt7__cxx1112basic_stringIcSt11char_traitsIcESaIcEEES7_EEC2ERKS9_
FNDA:1,_ZN9__gnu_cxx13new_allocatorISt4pairINSt7__cxx1112basic_stringIcSt11char_traitsIcESaIcEEES7_EED2Ev
FNDA:0,_ZN9__gnu_cxx13new_allocatorISt4pairINSt7__cxx1112basic_stringIcSt11char_traitsIcESaIcEEES7_EE8allocateEmPKv
FNDA:0,_ZN9__gnu_cxx13new_allocatorISt4pairINSt7__cxx1112basic_stringIcSt11char_traitsIcESaIcEEES7_EE10deallocateEPS8_m
FNDA:0,_ZNK9__gnu_cxx13new_allocatorISt4pairINSt7__cxx1112basic_stringIcSt11char_traitsIcESaIcEEES7_EE8max_sizeEv
FNF:5
FNH:2
DA:81,2
DA:86,1
DA:99,0
DA:101,0
DA:102,0
DA:104,0
DA:109,0
DA:110,0
DA:113,0
DA:114,0
LF:10
LH:2
end_of_record
SF:/usr/include/c++/5/functional
FN:76,_ZNSt22_Maybe_get_result_typeISt7_Mem_fnIM17ComplexNumberTestFvvEEvEC2Ev
FN:85,_ZNSt22_Weak_result_type_implISt7_Mem_fnIM17ComplexNumberTestFvvEEEC2Ev
FN:183,_ZNSt17_Weak_result_typeISt7_Mem_fnIM17ComplexNumberTestFvvEEEC2Ev
FN:488,_ZNSt31_Maybe_unary_or_binary_functionIvJEEC2Ev
FN:492,_ZNSt31_Maybe_unary_or_binary_functionIvJP17ComplexNumberTestEEC2Ev
FN:575,_ZNSt12_Mem_fn_baseIM17ComplexNumberTestFvvELb1EEC2ES2_
FN:599,_ZNKSt12_Mem_fn_baseIM17ComplexNumberTestFvvELb1EEclIJEvEEvPS0_DpOT_
FN:727,_ZNSt7_Mem_fnIM17ComplexNumberTestFvvEEC2ES2_
FN:991,_ZNVKSt3_MuIP17ComplexNumberTestLb0ELb0EEclIRS1_St5tupleIJEEEEOT_S8_RT0_
FN:1025,_ZNSt26_Maybe_wrap_member_pointerIM17ComplexNumberTestFvvEE9__do_wrapES2_
FN:1071,_ZNSt5_BindIFSt7_Mem_fnIM17ComplexNumberTestFvvEEPS1_EE6__callIvJEJLm0EEEET_OSt5tupleIJDpT0_EESt12_Index_tupleIJXspT1_EEE
FN:1113,_ZNSt5_BindIFSt7_Mem_fnIM17ComplexNumberTestFvvEEPS1_EEC2IJRS5_EEEOS4_DpOT_
FN:1119,_ZNSt5_BindIFSt7_Mem_fnIM17ComplexNumberTestFvvEEPS1_EEC2EOS7_
FN:1129,_ZNSt5_BindIFSt7_Mem_fnIM17ComplexNumberTestFvvEEPS1_EEclIJEvEET0_DpOT_
FN:1462,_ZSt4bindIRM17ComplexNumberTestFvvEJRPS0_EENSt12_Bind_helperIXsrSt5__or_IJSt11is_integralINSt5decayIT_E4typeEESt7is_enumISC_EEE5valueESA_JDpT0_EE4typeEOSA_DpOSH_
FN:1598,_ZNSt9_Any_data9_M_accessEv
FN:1599,_ZNKSt9_Any_data9_M_accessEv
FN:1603,_ZNSt9_Any_data9_M_accessIPKSt9type_infoEERT_v
FN:1603,_ZNSt9_Any_data9_M_accessIPSt5_BindIFSt7_Mem_fnIM17ComplexNumberTestFvvEEPS3_EEEERT_v
FN:1608,_ZNKSt9_Any_data9_M_accessIPSt5_BindIFSt7_Mem_fnIM17ComplexNumberTestFvvEEPS3_EEEERKT_v
FN:1689,_ZNSt14_Function_base13_Base_managerISt5_BindIFSt7_Mem_fnIM17ComplexNumberTestFvvEEPS3_EEE14_M_get_pointerERKSt9_Any_data
FN:1708,_ZNSt14_Function_base13_Base_managerISt5_BindIFSt7_Mem_fnIM17ComplexNumberTestFvvEEPS3_EEE8_M_cloneERSt9_Any_dataRKSB_St17integral_constantIbLb0EE
FN:1724,_ZNSt14_Function_base13_Base_managerISt5_BindIFSt7_Mem_fnIM17ComplexNumberTestFvvEEPS3_EEE10_M_destroyERSt9_Any_dataSt17integral_constantIbLb0EE
FN:1731,_ZNSt14_Function_base13_Base_managerISt5_BindIFSt7_Mem_fnIM17ComplexNumberTestFvvEEPS3_EEE10_M_managerERSt9_Any_dataRKSB_St18_Manager_operation
FN:1757,_ZNSt14_Function_base13_Base_managerISt5_BindIFSt7_Mem_fnIM17ComplexNumberTestFvvEEPS3_EEE15_M_init_functorERSt9_Any_dataOS9_
FN:1777,_ZNSt14_Function_base13_Base_managerISt5_BindIFSt7_Mem_fnIM17ComplexNumberTestFvvEEPS3_EEE21_M_not_empty_functionIS9_EEbRKT_
FN:1786,_ZNSt14_Function_base13_Base_managerISt5_BindIFSt7_Mem_fnIM17ComplexNumberTestFvvEEPS3_EEE15_M_init_functorERSt9_Any_dataOS9_St17integral_constantIbLb0EE
FN:1825,_ZNSt14_Function_baseC2Ev
FN:1827,_ZNSt14_Function_baseD2Ev
FN:1834,_ZNKSt14_Function_base8_M_emptyEv
FN:1869,_ZNSt17_Function_handlerIFvvESt5_BindIFSt7_Mem_fnIM17ComplexNumberTestFvvEEPS3_EEE9_M_invokeERKSt9_Any_data
FN:1974,_ZNSt8functionIFvvEED2Ev
FN:2246,_ZNSt8functionIFvvEEC2ISt5_BindIFSt7_Mem_fnIM17ComplexNumberTestFvvEEPS5_EEvvEET_
FN:2262,_ZNKSt8functionIFvvEEclEv
FNDA:2,_ZNSt22_Maybe_get_result_typeISt7_Mem_fnIM17ComplexNumberTestFvvEEvEC2Ev
FNDA:2,_ZNSt22_Weak_result_type_implISt7_Mem_fnIM17ComplexNumberTestFvvEEEC2Ev
FNDA:2,_ZNSt17_Weak_result_typeISt7_Mem_fnIM17ComplexNumberTestFvvEEEC2Ev
FNDA:1,_ZNSt31_Maybe_unary_or_binary_functionIvJEEC2Ev
FNDA:1,_ZNSt31_Maybe_unary_or_binary_functionIvJP17ComplexNumberTestEEC2Ev
FNDA:1,_ZNSt12_Mem_fn_baseIM17ComplexNumberTestFvvELb1EEC2ES2_
FNDA:1,_ZNKSt12_Mem_fn_baseIM17ComplexNumberTestFvvELb1EEclIJEvEEvPS0_DpOT_
FNDA:1,_ZNSt7_Mem_fnIM17ComplexNumberTestFvvEEC2ES2_
FNDA:1,_ZNVKSt3_MuIP17ComplexNumberTestLb0ELb0EEclIRS1_St5tupleIJEEEEOT_S8_RT0_
FNDA:1,_ZNSt26_Maybe_wrap_member_pointerIM17ComplexNumberTestFvvEE9__do_wrapES2_
FNDA:1,_ZNSt5_BindIFSt7_Mem_fnIM17ComplexNumberTestFvvEEPS1_EE6__callIvJEJLm0EEEET_OSt5tupleIJDpT0_EESt12_Index_tupleIJXspT1_EEE
FNDA:1,_ZNSt5_BindIFSt7_Mem_fnIM17ComplexNumberTestFvvEEPS1_EEC2IJRS5_EEEOS4_DpOT_
FNDA:1,_ZNSt5_BindIFSt7_Mem_fnIM17ComplexNumberTestFvvEEPS1_EEC2EOS7_
FNDA:1,_ZNSt5_BindIFSt7_Mem_fnIM17ComplexNumberTestFvvEEPS1_EEclIJEvEET0_DpOT_
FNDA:1,_ZSt4bindIRM17ComplexNumberTestFvvEJRPS0_EENSt12_Bind_helperIXsrSt5__or_IJSt11is_integralINSt5decayIT_E4typeEESt7is_enumISC_EEE5valueESA_JDpT0_EE4typeEOSA_DpOSH_
FNDA:2,_ZNSt9_Any_data9_M_accessEv
FNDA:1,_ZNKSt9_Any_data9_M_accessEv
FNDA:2,_ZNSt9_Any_data9_M_accessIPSt5_BindIFSt7_Mem_fnIM17ComplexNumberTestFvvEEPS3_EEEERT_v
FNDA:0,_ZNSt9_Any_data9_M_accessIPKSt9type_infoEERT_v
FNDA:1,_ZNKSt9_Any_data9_M_accessIPSt5_BindIFSt7_Mem_fnIM17ComplexNumberTestFvvEEPS3_EEEERKT_v
FNDA:1,_ZNSt14_Function_base13_Base_managerISt5_BindIFSt7_Mem_fnIM17ComplexNumberTestFvvEEPS3_EEE14_M_get_pointerERKSt9_Any_data
FNDA:0,_ZNSt14_Function_base13_Base_managerISt5_BindIFSt7_Mem_fnIM17ComplexNumberTestFvvEEPS3_EEE8_M_cloneERSt9_Any_dataRKSB_St17integral_constantIbLb0EE
FNDA:1,_ZNSt14_Function_base13_Base_managerISt5_BindIFSt7_Mem_fnIM17ComplexNumberTestFvvEEPS3_EEE10_M_destroyERSt9_Any_dataSt17integral_constantIbLb0EE
FNDA:1,_ZNSt14_Function_base13_Base_managerISt5_BindIFSt7_Mem_fnIM17ComplexNumberTestFvvEEPS3_EEE10_M_managerERSt9_Any_dataRKSB_St18_Manager_operation
FNDA:1,_ZNSt14_Function_base13_Base_managerISt5_BindIFSt7_Mem_fnIM17ComplexNumberTestFvvEEPS3_EEE15_M_init_functorERSt9_Any_dataOS9_
FNDA:1,_ZNSt14_Function_base13_Base_managerISt5_BindIFSt7_Mem_fnIM17ComplexNumberTestFvvEEPS3_EEE21_M_not_empty_functionIS9_EEbRKT_
FNDA:1,_ZNSt14_Function_base13_Base_managerISt5_BindIFSt7_Mem_fnIM17ComplexNumberTestFvvEEPS3_EEE15_M_init_functorERSt9_Any_dataOS9_St17integral_constantIbLb0EE
FNDA:1,_ZNSt14_Function_baseC2Ev
FNDA:1,_ZNSt14_Function_baseD2Ev
FNDA:1,_ZNKSt14_Function_base8_M_emptyEv
FNDA:1,_ZNSt17_Function_handlerIFvvESt5_BindIFSt7_Mem_fnIM17ComplexNumberTestFvvEEPS3_EEE9_M_invokeERKSt9_Any_data
FNDA:1,_ZNSt8functionIFvvEED2Ev
FNDA:1,_ZNSt8functionIFvvEEC2ISt5_BindIFSt7_Mem_fnIM17ComplexNumberTestFvvEEPS5_EEvvEET_
FNDA:1,_ZNKSt8functionIFvvEEclEv
FNF:34
FNH:32
DA:76,2
DA:85,2
DA:183,2
DA:488,1
DA:492,1
DA:575,1
DA:599,1
DA:600,1
DA:727,1
DA:991,1
DA:992,1
DA:1025,1
DA:1026,1
DA:1071,1
DA:1074,1
DA:1113,1
DA:1114,1
DA:1115,1
DA:1119,1
DA:1120,1
DA:1121,1
DA:1129,1
DA:1132,1
DA:1133,1
DA:1462,1
DA:1467,1
DA:1468,2
DA:1598,2
DA:1599,1
DA:1603,2
DA:1604,2
DA:1608,1
DA:1609,1
DA:1689,1
DA:1692,1
DA:1693,1
DA:1694,1
DA:1708,0
DA:1710,0
DA:1711,0
DA:1712,0
DA:1724,1
DA:1726,1
DA:1727,1
DA:1731,1
DA:1734,1
DA:1738,0
DA:1739,0
DA:1742,0
DA:1743,0
DA:1746,0
DA:1747,0
DA:1750,1
DA:1751,1
DA:1753,1
DA:1757,1
DA:1758,1
DA:1777,1
DA:1778,1
DA:1786,1
DA:1787,1
DA:1825,1
DA:1827,1
DA:1828,1
DA:1829,1
DA:1830,1
DA:1831,1
DA:1834,1
DA:1869,1
DA:1871,1
DA:1873,1
DA:1974,1
DA:2246,1
DA:2248,1
DA:2252,1
DA:2254,1
DA:2255,1
DA:2256,1
DA:2258,1
DA:2262,1
DA:2265,1
DA:2266,0
DA:2267,1
LF:83
LH:72
end_of_record
SF:/usr/include/c++/5/iostream
DA:74,1
LF:1
LH:1
end_of_record
SF:/usr/include/c++/5/new
FN:129,_ZnwmPv
FN:135,_ZdlPvS_
FNDA:0,_ZnwmPv
FNDA:0,_ZdlPvS_
FNF:2
FNH:0
DA:129,0
DA:130,0
DA:135,0
LF:3
LH:0
end_of_record
SF:/usr/include/c++/5/tuple
FN:68,_ZNSt10_Head_baseILm1ESt14default_deleteIN7CppUnit9TestSuiteEELb1EEC2IS3_EEOT_
FN:95,_ZNSt10_Head_baseILm1ESt14default_deleteIN7CppUnit9TestSuiteEELb1EE7_M_headERS4_
FN:114,_ZNSt10_Head_baseILm0EP17ComplexNumberTestLb0EEC2IS1_EEOT_
FN:114,_ZNSt10_Head_baseILm0EPN7CppUnit9TestSuiteELb0EEC2IRS2_EEOT_
FN:114,_ZNSt10_Head_baseILm0EP17ComplexNumberTestLb0EEC2IRS1_EEOT_
FN:142,_ZNSt10_Head_baseILm0EP17ComplexNumberTestLb0EE7_M_headERS2_
FN:142,_ZNSt10_Head_baseILm0EPN7CppUnit9TestSuiteELb0EE7_M_headERS3_
FN:145,_ZNSt10_Head_baseILm0EPN7CppUnit9TestSuiteELb0EE7_M_headERKS3_
FN:190,_ZNSt11_Tuple_implILm0EJPN7CppUnit9TestSuiteESt14default_deleteIS1_EEE7_M_headERS5_
FN:193,_ZNSt11_Tuple_implILm0EJPN7CppUnit9TestSuiteESt14default_deleteIS1_EEE7_M_headERKS5_
FN:211,_ZNSt11_Tuple_implILm0EJPN7CppUnit9TestSuiteESt14default_deleteIS1_EEEC2IRS2_JS4_EvEEOT_DpOT0_
FN:347,_ZNSt11_Tuple_implILm0EJP17ComplexNumberTestEE7_M_headERS2_
FN:347,_ZNSt11_Tuple_implILm1EJSt14default_deleteIN7CppUnit9TestSuiteEEEE7_M_headERS4_
FN:361,_ZNSt11_Tuple_implILm0EJP17ComplexNumberTestEEC2IRS1_EEOT_
FN:361,_ZNSt11_Tuple_implILm1EJSt14default_deleteIN7CppUnit9TestSuiteEEEEC2IS3_EEOT_
FN:367,_ZNSt11_Tuple_implILm0EJP17ComplexNumberTestEEC2EOS2_
FN:479,_ZNSt5tupleIJP17ComplexNumberTestEEC2IJRS1_EvEEDpOT_
FN:484,_ZNSt5tupleIJP17ComplexNumberTestEEC2EOS2_
FN:612,_ZNSt5tupleIJPN7CppUnit9TestSuiteESt14default_deleteIS1_EEEC2IRS2_S4_vEEOT_OT0_
FN:821,_ZSt12__get_helperILm0EPN7CppUnit9TestSuiteEJSt14default_deleteIS1_EEERT0_RSt11_Tuple_implIXT_EJS5_DpT1_EE
FN:821,_ZSt12__get_helperILm1ESt14default_deleteIN7CppUnit9TestSuiteEEJEERT0_RSt11_Tuple_implIXT_EJS4_DpT1_EE
FN:821,_ZSt12__get_helperILm0EP17ComplexNumberTestJEERT0_RSt11_Tuple_implIXT_EJS2_DpT1_EE
FN:826,_ZSt12__get_helperILm0EPN7CppUnit9TestSuiteEJSt14default_deleteIS1_EEERKT0_RKSt11_Tuple_implIXT_EJS5_DpT1_EE
FN:832,_ZSt3getILm0EJPN7CppUnit9TestSuiteESt14default_deleteIS1_EEERNSt13tuple_elementIXT_ESt5tupleIJDpT0_EEE4typeERS9_
FN:832,_ZSt3getILm0EJP17ComplexNumberTestEERNSt13tuple_elementIXT_ESt5tupleIJDpT0_EEE4typeERS6_
FN:832,_ZSt3getILm1EJPN7CppUnit9TestSuiteESt14default_deleteIS1_EEERNSt13tuple_elementIXT_ESt5tupleIJDpT0_EEE4typeERS9_
FN:838,_ZSt3getILm0EJPN7CppUnit9TestSuiteESt14default_deleteIS1_EEERKNSt13tuple_elementIXT_ESt5tupleIJDpT0_EEE4typeERKS9_
FN:975,_ZSt16forward_as_tupleIJEESt5tupleIJDpOT_EES3_
FNDA:1,_ZNSt10_Head_baseILm1ESt14default_deleteIN7CppUnit9TestSuiteEELb1EEC2IS3_EEOT_
FNDA:0,_ZNSt10_Head_baseILm1ESt14default_deleteIN7CppUnit9TestSuiteEELb1EE7_M_headERS4_
FNDA:1,_ZNSt10_Head_baseILm0EP17ComplexNumberTestLb0EEC2IRS1_EEOT_
FNDA:1,_ZNSt10_Head_baseILm0EP17ComplexNumberTestLb0EEC2IS1_EEOT_
FNDA:1,_ZNSt10_Head_baseILm0EPN7CppUnit9TestSuiteELb0EEC2IRS2_EEOT_
FNDA:2,_ZNSt10_Head_baseILm0EP17ComplexNumberTestLb0EE7_M_headERS2_
FNDA:2,_ZNSt10_Head_baseILm0EPN7CppUnit9TestSuiteELb0EE7_M_headERS3_
FNDA:2,_ZNSt10_Head_baseILm0EPN7CppUnit9TestSuiteELb0EE7_M_headERKS3_
FNDA:2,_ZNSt11_Tuple_implILm0EJPN7CppUnit9TestSuiteESt14default_deleteIS1_EEE7_M_headERS5_
FNDA:2,_ZNSt11_Tuple_implILm0EJPN7CppUnit9TestSuiteESt14default_deleteIS1_EEE7_M_headERKS5_
FNDA:1,_ZNSt11_Tuple_implILm0EJPN7CppUnit9TestSuiteESt14default_deleteIS1_EEEC2IRS2_JS4_EvEEOT_DpOT0_
FNDA:0,_ZNSt11_Tuple_implILm1EJSt14default_deleteIN7CppUnit9TestSuiteEEEE7_M_headERS4_
FNDA:2,_ZNSt11_Tuple_implILm0EJP17ComplexNumberTestEE7_M_headERS2_
FNDA:1,_ZNSt11_Tuple_implILm0EJP17ComplexNumberTestEEC2IRS1_EEOT_
FNDA:1,_ZNSt11_Tuple_implILm1EJSt14default_deleteIN7CppUnit9TestSuiteEEEEC2IS3_EEOT_
FNDA:1,_ZNSt11_Tuple_implILm0EJP17ComplexNumberTestEEC2EOS2_
FNDA:1,_ZNSt5tupleIJP17ComplexNumberTestEEC2IJRS1_EvEEDpOT_
FNDA:1,_ZNSt5tupleIJP17ComplexNumberTestEEC2EOS2_
FNDA:1,_ZNSt5tupleIJPN7CppUnit9TestSuiteESt14default_deleteIS1_EEEC2IRS2_S4_vEEOT_OT0_
FNDA:1,_ZSt12__get_helperILm0EP17ComplexNumberTestJEERT0_RSt11_Tuple_implIXT_EJS2_DpT1_EE
FNDA:0,_ZSt12__get_helperILm1ESt14default_deleteIN7CppUnit9TestSuiteEEJEERT0_RSt11_Tuple_implIXT_EJS4_DpT1_EE
FNDA:2,_ZSt12__get_helperILm0EPN7CppUnit9TestSuiteEJSt14default_deleteIS1_EEERT0_RSt11_Tuple_implIXT_EJS5_DpT1_EE
FNDA:2,_ZSt12__get_helperILm0EPN7CppUnit9TestSuiteEJSt14default_deleteIS1_EEERKT0_RKSt11_Tuple_implIXT_EJS5_DpT1_EE
FNDA:1,_ZSt3getILm0EJP17ComplexNumberTestEERNSt13tuple_elementIXT_ESt5tupleIJDpT0_EEE4typeERS6_
FNDA:0,_ZSt3getILm1EJPN7CppUnit9TestSuiteESt14default_deleteIS1_EEERNSt13tuple_elementIXT_ESt5tupleIJDpT0_EEE4typeERS9_
FNDA:2,_ZSt3getILm0EJPN7CppUnit9TestSuiteESt14default_deleteIS1_EEERNSt13tuple_elementIXT_ESt5tupleIJDpT0_EEE4typeERS9_
FNDA:2,_ZSt3getILm0EJPN7CppUnit9TestSuiteESt14default_deleteIS1_EEERKNSt13tuple_elementIXT_ESt5tupleIJDpT0_EEE4typeERKS9_
FNDA:1,_ZSt16forward_as_tupleIJEESt5tupleIJDpOT_EES3_
FNF:28
FNH:24
DA:68,1
DA:69,1
DA:95,0
DA:114,3
DA:115,3
DA:142,4
DA:145,2
DA:190,2
DA:193,2
DA:211,1
DA:212,1
DA:213,1
DA:347,2
DA:361,2
DA:362,2
DA:367,1
DA:369,1
DA:479,1
DA:480,1
DA:484,1
DA:612,1
DA:613,1
DA:821,3
DA:822,3
DA:826,2
DA:827,2
DA:832,3
DA:833,3
DA:838,2
DA:839,2
DA:975,1
DA:976,1
LF:32
LH:31
end_of_record
SF:/usr/local/include/cppunit/TestCaller.h
FN:151,_ZN7CppUnit10TestCallerI17ComplexNumberTestEC2ENSt7__cxx1112basic_stringIcSt11char_traitsIcESaIcEEEMS1_FvvEPS1_
FN:167,_ZN7CppUnit10TestCallerI17ComplexNumberTestED0Ev
FN:167,_ZN7CppUnit10TestCallerI17ComplexNumberTestED2Ev
FN:173,_ZN7CppUnit10TestCallerI17ComplexNumberTestE7runTestEv
FN:178,_ZN7CppUnit10TestCallerI17ComplexNumberTestE5setUpEv
FN:183,_ZN7CppUnit10TestCallerI17ComplexNumberTestE8tearDownEv
FNDA:1,_ZN7CppUnit10TestCallerI17ComplexNumberTestEC2ENSt7__cxx1112basic_stringIcSt11char_traitsIcESaIcEEEMS1_FvvEPS1_
FNDA:1,_ZN7CppUnit10TestCallerI17ComplexNumberTestED0Ev
FNDA:1,_ZN7CppUnit10TestCallerI17ComplexNumberTestED2Ev
FNDA:1,_ZN7CppUnit10TestCallerI17ComplexNumberTestE7runTestEv
FNDA:1,_ZN7CppUnit10TestCallerI17ComplexNumberTestE5setUpEv
FNDA:1,_ZN7CppUnit10TestCallerI17ComplexNumberTestE8tearDownEv
FNF:6
FNH:6
DA:151,1
DA:155,1
DA:157,1
DA:167,2
DA:169,1
DA:170,1
DA:171,3
DA:173,1
DA:175,1
DA:176,1
DA:178,1
DA:180,1
DA:181,1
DA:183,1
DA:185,1
DA:186,1
LF:16
LH:16
end_of_record
SF:/usr/local/include/cppunit/TestFixture.h
FN:83,_ZN7CppUnit11TestFixtureC2Ev
FN:86,_ZN7CppUnit11TestFixtureD0Ev
FN:86,_ZN7CppUnit11TestFixtureD2Ev
FN:89,_ZN7CppUnit11TestFixture5setUpEv
FN:92,_ZN7CppUnit11TestFixture8tearDownEv
FNDA:1,_ZN7CppUnit11TestFixtureC2Ev
FNDA:0,_ZN7CppUnit11TestFixtureD0Ev
FNDA:1,_ZN7CppUnit11TestFixtureD2Ev
FNDA:1,_ZN7CppUnit11TestFixture5setUpEv
FNDA:1,_ZN7CppUnit11TestFixture8tearDownEv
FNF:5
FNH:4
DA:83,1
DA:86,1
DA:89,1
DA:92,1
LF:4
LH:4
end_of_record
SF:/usr/local/include/cppunit/extensions/AutoRegisterSuite.h
FN:33,_ZN7CppUnit17AutoRegisterSuiteI17ComplexNumberTestEC2Ev
FN:48,_ZN7CppUnit17AutoRegisterSuiteI17ComplexNumberTestED2Ev
FNDA:1,_ZN7CppUnit17AutoRegisterSuiteI17ComplexNumberTestEC2Ev
FNDA:0,_ZN7CppUnit17AutoRegisterSuiteI17ComplexNumberTestED2Ev
FNF:2
FNH:1
DA:33,1
DA:34,1
DA:36,1
DA:37,1
DA:48,0
DA:50,0
DA:51,0
DA:52,0
LF:8
LH:4
end_of_record
SF:/usr/local/include/cppunit/extensions/TestFactory.h
FN:13,_ZN7CppUnit11TestFactoryC2Ev
FN:16,_ZN7CppUnit11TestFactoryD0Ev
FN:16,_ZN7CppUnit11TestFactoryD2Ev
FNDA:1,_ZN7CppUnit11TestFactoryC2Ev
FNDA:0,_ZN7CppUnit11TestFactoryD0Ev
FNDA:0,_ZN7CppUnit11TestFactoryD2Ev
FNF:3
FNH:1
DA:13,1
DA:16,0
LF:2
LH:1
end_of_record
SF:/usr/local/include/cppunit/extensions/TestFixtureFactory.h
FN:22,_ZN7CppUnit18TestFixtureFactoryD0Ev
FN:22,_ZN7CppUnit18TestFixtureFactoryD2Ev
FN:31,_ZN7CppUnit25ConcretTestFixtureFactoryI17ComplexNumberTestED0Ev
FN:31,_ZN7CppUnit25ConcretTestFixtureFactoryI17ComplexNumberTestED2Ev
FN:39,_ZN7CppUnit25ConcretTestFixtureFactoryI17ComplexNumberTestE11makeFixtureEv
FNDA:0,_ZN7CppUnit18TestFixtureFactoryD0Ev
FNDA:1,_ZN7CppUnit18TestFixtureFactoryD2Ev
FNDA:0,_ZN7CppUnit25ConcretTestFixtureFactoryI17ComplexNumberTestED0Ev
FNDA:1,_ZN7CppUnit25ConcretTestFixtureFactoryI17ComplexNumberTestED2Ev
FNDA:1,_ZN7CppUnit25ConcretTestFixtureFactoryI17ComplexNumberTestE11makeFixtureEv
FNF:5
FNH:3
DA:22,1
DA:31,1
DA:39,1
DA:41,1
LF:4
LH:4
end_of_record
SF:/usr/local/include/cppunit/extensions/TestSuiteBuilderContext.h
FN:29,_ZN7CppUnit27TestSuiteBuilderContextBaseC2ERKS0_
FN:115,_ZN7CppUnit23TestSuiteBuilderContextI17ComplexNumberTestED0Ev
FN:115,_ZN7CppUnit23TestSuiteBuilderContextI17ComplexNumberTestED2Ev
FN:120,_ZN7CppUnit23TestSuiteBuilderContextI17ComplexNumberTestEC2ERNS_27TestSuiteBuilderContextBaseE
FN:131,_ZNK7CppUnit23TestSuiteBuilderContextI17ComplexNumberTestE11makeFixtureEv
FNDA:1,_ZN7CppUnit27TestSuiteBuilderContextBaseC2ERKS0_
FNDA:0,_ZN7CppUnit23TestSuiteBuilderContextI17ComplexNumberTestED0Ev
FNDA:1,_ZN7CppUnit23TestSuiteBuilderContextI17ComplexNumberTestED2Ev
FNDA:1,_ZN7CppUnit23TestSuiteBuilderContextI17ComplexNumberTestEC2ERNS_27TestSuiteBuilderContextBaseE
FNDA:1,_ZNK7CppUnit23TestSuiteBuilderContextI17ComplexNumberTestE11makeFixtureEv
FNF:5
FNH:4
DA:29,1
DA:115,1
DA:120,1
DA:121,1
DA:123,1
DA:131,1
DA:133,1
LF:7
LH:7
end_of_record
SF:/usr/local/include/cppunit/extensions/TestSuiteFactory.h
FN:15,_ZN7CppUnit16TestSuiteFactoryI17ComplexNumberTestED2Ev
FN:15,_ZN7CppUnit16TestSuiteFactoryI17ComplexNumberTestED0Ev
FN:15,_ZN7CppUnit16TestSuiteFactoryI17ComplexNumberTestEC2Ev
FN:18,_ZN7CppUnit16TestSuiteFactoryI17ComplexNumberTestE8makeTestEv
FNDA:0,_ZN7CppUnit16TestSuiteFactoryI17ComplexNumberTestED0Ev
FNDA:0,_ZN7CppUnit16TestSuiteFactoryI17ComplexNumberTestED2Ev
FNDA:1,_ZN7CppUnit16TestSuiteFactoryI17ComplexNumberTestEC2Ev
FNDA:1,_ZN7CppUnit16TestSuiteFactoryI17ComplexNumberTestE8makeTestEv
FNF:4
FNH:2
DA:15,1
DA:18,1
DA:20,1
LF:3
LH:3
end_of_record
SF:/root/abdul/cpp_unit/complex_number_cpp_unit/test/src/test_main.cpp
FN:19,_ZN17ComplexNumberTestD2Ev
FN:19,_ZN17ComplexNumberTestD0Ev
FN:19,_ZN17ComplexNumberTestC2Ev
FN:21,_ZN17ComplexNumberTest14getTestNamer__Ev
FN:21,_ZN17ComplexNumberTest15addTestsToSuiteERN7CppUnit27TestSuiteBuilderContextBaseE
FN:24,_ZN17ComplexNumberTest5suiteEv
FN:42,_ZN17ComplexNumberTest12testAdditionEv
FN:54,main
FN:85,_GLOBAL__sub_I__ZN17ComplexNumberTest12testAdditionEv
FN:85,_Z41__static_initialization_and_destruction_0ii
FNDA:1,_ZN17ComplexNumberTestD0Ev
FNDA:1,_ZN17ComplexNumberTestD2Ev
FNDA:1,_ZN17ComplexNumberTestC2Ev
FNDA:1,_ZN17ComplexNumberTest15addTestsToSuiteERN7CppUnit27TestSuiteBuilderContextBaseE
FNDA:1,_ZN17ComplexNumberTest14getTestNamer__Ev
FNDA:1,_ZN17ComplexNumberTest5suiteEv
FNDA:1,_ZN17ComplexNumberTest12testAdditionEv
FNDA:1,main
FNDA:1,_GLOBAL__sub_I__ZN17ComplexNumberTest12testAdditionEv
FNDA:1,_Z41__static_initialization_and_destruction_0ii
FNF:10
FNH:10
DA:19,3
DA:21,3
DA:22,1
DA:24,2
DA:42,1
DA:44,1
DA:45,1
DA:46,1
DA:47,1
DA:48,1
DA:50,1
DA:51,1
DA:53,1
DA:54,1
DA:57,2
DA:60,2
DA:61,1
DA:64,2
DA:65,1
DA:68,2
DA:69,1
DA:70,1
DA:73,2
DA:74,1
DA:77,2
DA:78,2
DA:79,1
DA:82,1
DA:85,3
LF:29
LH:29
end_of_record
TN:
SF:/usr/include/c++/5/iostream
DA:74,1
LF:1
LH:1
end_of_record
SF:/root/abdul/cpp_unit/complex_number_cpp_unit/src/Complex.cpp
FN:16,_ZN7ComplexC2Ev
FN:24,_ZN7ComplexC2Eii
FN:31,_ZN7Complex3addES_S_
FN:43,_ZN7Complex7getRealEv
FN:48,_ZN7Complex7getImagEv
FN:52,_ZeqRK7ComplexS1_
FN:70,_Z41__static_initialization_and_destruction_0ii
FN:70,_GLOBAL__sub_I__ZN7ComplexC2Ev
FNDA:0,_ZN7ComplexC2Ev
FNDA:4,_ZN7ComplexC2Eii
FNDA:1,_ZN7Complex3addES_S_
FNDA:1,_ZN7Complex7getRealEv
FNDA:1,_ZN7Complex7getImagEv
FNDA:1,_ZeqRK7ComplexS1_
FNDA:1,_GLOBAL__sub_I__ZN7ComplexC2Ev
FNDA:1,_Z41__static_initialization_and_destruction_0ii
FNF:8
FNH:7
DA:16,0
DA:18,0
DA:20,0
DA:22,0
DA:24,4
DA:26,4
DA:28,4
DA:29,4
DA:31,1
DA:33,1
DA:35,1
DA:39,1
DA:40,1
DA:43,1
DA:45,1
DA:48,1
DA:50,1
DA:52,1
DA:54,1
DA:56,1
DA:58,1
DA:62,0
DA:67,0
DA:70,3
LF:24
LH:18
end_of_record
